(lp0
(lp1
F0.14453996930803573
aF0.1621337890625
aF0.137982177734375
aF0.20061786358173078
aF0.09830147879464286
aF0.17659505208333334
aF0.3265380859375
aF0.158203125
aF0.2524007260799408
aF0.198974609375
aF0.11368815104166667
aF0.119384765625
aF0.10313585069444445
aF0.25830078125
aF0.087841796875
aF0.25477013221153844
aF0.2998046875
aF0.1858424136513158
aF0.188720703125
aF0.08126220703125
aF0.1553955078125
aF0.186279296875
aF0.2876674107142857
aF0.21502176920572916
aF0.145306396484375
aF0.126953125
aF0.17643229166666666
aF0.4737060546875
aF0.19954427083333334
aF0.0997783954326923
aF0.08539177389705882
aF0.16178385416666666
aF0.1114501953125
aF0.11916732788085938
aF0.10299144071691177
aF0.10320027669270833
aF0.17469200721153846
aF0.16094970703125
aF0.15467695891857147
aF0.176513671875
aF0.30322265625
aF0.152801513671875
aF0.3600260416666667
aF0.144866943359375
aF0.09869384765625
aF0.18310546875
aF0.10100446428571429
aF0.11960856119791667
aF0.1616617888212204
aF0.14053955078125
aF0.1787109375
aF0.21193377176920572
aF0.12379807692307693
aF0.1606689453125
aF0.11907087053571429
aF0.179901123046875
aF0.2897135416666667
aF0.10123697916666667
aF0.11853966346153846
aF0.086993408203125
aF0.1209716796875
aF0.2568359375
aF0.06818771362304688
aF0.216552734375
aF0.11019461495535714
aF0.12575785319010416
aF0.05587948069852941
aF0.175537109375
aF0.19494338262648808
aF0.1669921875
aF0.196435546875
aF0.18364606584821427
aF0.18552809495192307
aF0.09447370256696429
aF0.06872323843149039
aF0.10042317708333333
aF0.200958251953125
aF0.1333075629340278
aF0.2260199652777778
aF0.1796875
aF0.0781402587890625
aF0.15071614583333334
aF0.1455078125
aF0.12646484375
aF0.19401041666666666
aF0.17978374774639422
aF0.166015625
aF0.365478515625
aF0.1829345703125
aF0.226953125
aF0.1307373046875
aF0.11676580458879471
aF0.09251708984375
aF0.08113606770833333
aF0.1953125
aF0.10203200120192307
aF0.24365234375
aF0.13720703125
aF0.26953125
aF0.15755208333333334
aF0.15945638020833333
aF0.21551983173076922
aF0.23571319580078126
aF0.16387760639190674
aF0.11360677083333333
aF0.16828409830729166
aF0.07537434895833334
aF0.28271484375
aF0.17008463541666666
aF0.1047607421875
aF0.1603596955537796
aF0.08056640625
aF0.12674967447916666
aF0.122607421875
aF0.22884750366210938
aF0.215191650390625
aF0.1654385653409091
aF0.08092322716346154
aF0.260040283203125
aF0.2682291666666667
aF0.1138153076171875
aF0.12133319561298077
aF0.06027560763888889
aF0.1692301481962204
aF0.2392578125
aF0.144580078125
aF0.07088955965909091
aF0.4934895833333333
aF0.14492263793945312
aF0.16009521484375
aF0.10419921875
aF0.09251990685096154
aF0.10543236365685096
aF0.1590576171875
aF0.206787109375
aF0.17417790339543268
aF0.107391357421875
aF0.1468302458524704
aF0.1610107421875
aF0.25225830078125
aF0.21841866629464285
aF0.106884765625
aF0.15286788940429688
aF0.0964508056640625
aF0.13525390625
aF0.11997767857142858
aF0.326171875
aF0.225152587890625
aF0.140869140625
aF0.07402849197387695
aF0.184112548828125
aF0.14166259765625
aF0.14392764751727766
aF0.11624908447265625
aF0.14019775390625
aF0.06654575892857142
aF0.0921630859375
aF0.11767463684082032
aF0.044342041015625
aF0.2578125
aF0.080859375
aF0.2493614783653846
aF0.1787560780843099
aF0.22184244791666666
aF0.12216796875
aF0.1984532674153646
aF0.18447265625
aF0.14473470052083334
aF0.22705078125
aF0.353515625
aF0.0740966796875
aF0.15455845424107142
aF0.136474609375
aF0.173828125
aF0.13914053780691965
aF0.170562744140625
aF0.3118489583333333
aF0.11136300223214286
aF0.15592447916666666
aF0.15380859375
aF0.1082763671875
aF0.15792410714285715
aF0.22392578125
aF0.12791560246394232
aF0.3291015625
aF0.113525390625
aF0.1780734592013889
aF0.18684895833333334
aF0.16829427083333334
aF0.16632952008928573
aF0.13710530598958334
aF0.21451822916666666
aF0.07403564453125
aF0.10255533854166667
aF0.11607513427734376
aF0.2877604166666667
aF0.1123809814453125
aF0.088165283203125
aF0.2047119140625
aF0.056708441840277776
aF0.1453857421875
aF0.18658854166666666
aF0.1213226318359375
aF0.16277204241071427
aF0.17159016927083334
aF0.2049560546875
aF0.092803955078125
aF0.14354359019886365
aF0.11171875
aF0.15006103515625
aF0.14129130045572916
aF0.298828125
aF0.1520972618689904
aF0.375
aF0.08363069806780134
aF0.1982421875
aF0.2662841796875
aF0.23307291666666666
aF0.11148306039663461
aF0.17356989933894232
aF0.06575951209435096
aF0.1640625
aF0.15559895833333334
aF0.18790690104166666
aF0.1790924072265625
aF0.1103271484375
aF0.17717361450195312
aF0.17595027043269232
aF0.376953125
aF0.19010416666666666
aF0.12607421875
aF0.156640625
aF0.11101422991071429
aF0.14182321648848684
aF0.188720703125
aF0.216796875
aF0.22037760416666666
aF0.1016845703125
aF0.208740234375
aF0.1623687744140625
aF0.2841796875
aF0.127471923828125
aF0.13463134765625
aF0.17396240234375
aF0.162890625
aF0.1500701904296875
aF0.1806640625
aF0.316552734375
aF0.12960161481584823
aF0.08637491861979167
aF0.10475745567908654
aF0.233154296875
aF0.17718505859375
aF0.21030044555664062
aF0.18424479166666666
aF0.34423828125
aF0.20458984375
aF0.20125325520833334
aF0.1328125
aF0.08205384474534255
aF0.18684895833333334
aF0.11822040264423077
aF0.1505859375
aF0.12921142578125
aF0.136932373046875
aF0.208648681640625
aF0.10655799278846154
aF0.084619140625
aF0.0950520858168602
aF0.09743275361902573
aF0.1189117431640625
aF0.53125
aF0.226806640625
aF0.15868436373197115
aF0.16536458333333334
aF0.13564453125
aF0.15657552083333334
aF0.040126255580357144
aF0.18701171875
aF0.1799034705528846
aF0.12955729166666666
aF0.277734375
aF0.205810546875
aF0.186480712890625
aF0.21861049107142858
aF0.176025390625
aF0.14983367919921875
aF0.16455586751302084
aF0.29031028747558596
aF0.3089599609375
aF0.2747395833333333
aF0.28106689453125
aF0.02294921875
aF0.15835774739583333
aF0.236328125
aF0.09003240411931818
aF0.21028645833333334
aF0.11810302734375
aF0.30615234375
aF0.26171875
aF-0.15602463942307693
aF-0.16804636441744292
aF-0.177783203125
aF-0.15667724609375
aF-0.183349609375
aF-0.14414625901442307
aF-0.2541387648809524
aF-0.1571044921875
aF-0.20740685096153846
aF-0.119384765625
aF-0.1552734375
aF-0.25555419921875
aF-0.24925818810096154
aF-0.10325876871744792
aF-0.21041165865384615
aF-0.13736368815104166
aF-0.07344563802083333
aF-0.10319010416666667
aF-0.21341646634615385
aF-0.2887369791666667
aF-0.1807861328125
aF-0.05515700120192308
aF-0.10467783610026042
aF-0.1974283903837204
aF-0.35048828125
aF-0.23372395833333334
aF-0.20220947265625
aF-0.09981863839285714
aF-0.09688685490534855
aF-0.21354166666666666
aF-0.3118489583333333
aF-0.16172572544642858
aF-0.19788106282552084
aF-0.349609375
aF-0.139892578125
aF-0.2109375
aF-0.08631591796875
aF-0.1768798828125
aF-0.1295440673828125
aF-0.1136016845703125
aF-0.22171724759615385
aF-0.18660481770833334
aF-0.07147979736328125
aF-0.2080078125
aF-0.2008686065673828
aF-0.21888950892857142
aF-0.17478434244791666
aF-0.16008112980769232
aF-0.21630859375
aF-0.12904866536458334
aF-0.303173828125
aF-0.13785807291666666
aF-0.15128173828125
aF-0.18834803654597357
aF-0.12615966796875
aF-0.13802083333333334
aF-0.2314453125
aF-0.16756184895833334
aF-0.2421875
aF-0.19942728678385416
aF-0.2774251302083333
aF-0.154443359375
aF-0.2140174278846154
aF-0.13519723074776785
aF-0.2565104166666667
aF-0.267578125
aF-0.22212982177734375
aF-0.2044959435096154
aF-0.15885416666666666
aF-0.11203438895089286
aF-0.240234375
aF-0.162353515625
aF-0.16796875
aF-0.298828125
aF-0.330859375
aF-0.21328125
aF-0.061089409722222224
aF-0.14066162109375
aF-0.12556340144230768
aF-0.0929424579326923
aF-0.1796875
aF-0.2193756103515625
aF-0.09792856069711539
aF-0.17704264322916666
aF-0.11782602163461539
aF-0.1591796875
aF-0.1541259765625
aF-0.0368927001953125
aF-0.128662109375
aF-0.1392822265625
aF-0.370465087890625
aF-0.19684709821428573
aF-0.17915852864583334
aF-0.2406158447265625
aF-0.15462239583333334
aF-0.20149739583333334
aF-0.05479621887207031
aF-0.116943359375
aF-0.07942708333333333
aF-0.13944244384765625
aF-0.12300931490384616
aF-0.2137298583984375
aF-0.216796875
aF-0.11015973772321429
aF-0.1199493408203125
aF-0.17848968505859375
aF-0.23228236607142858
aF-0.13405568976151316
aF-0.15523274739583334
aF-0.2080078125
aF-0.181396484375
aF-0.2071814903846154
aF-0.13898096084594727
aF-0.17938232421875
aF-0.10776774088541667
aF-0.128173828125
aF-0.146826171875
aF-0.27825927734375
aF-0.0774658203125
aF-0.14889090401785715
aF-0.326171875
aF-0.16552734375
aF-0.1962890625
aF-0.12369791666666667
aF-0.10749162946428571
aF-0.17724139873798078
aF-0.3404947916666667
aF-0.11822509765625
aF-0.37890625
aF-0.103363037109375
aF-0.17987060546875
aF-0.2091471403837204
aF-0.281005859375
aF-0.16098726712740385
aF-0.1629638671875
aF-0.1472574919462204
aF-0.169921875
aF-0.1446533203125
aF-0.1500651091337204
aF-0.061279296875
aF-0.15294189453125
aF-0.26092529296875
aF-0.176239013671875
aF-0.369140625
aF-0.138330078125
aF-0.14033610026041668
aF-0.12204996744791667
aF-0.182879638671875
aF-0.2412109375
aF-0.3277994791666667
aF-0.056966145833333336
aF-0.19895172119140625
aF-0.1772257536649704
aF-0.16495768229166666
aF-0.11173741957720588
aF-0.157470703125
aF-0.1923828125
aF-0.18033854166666666
aF-0.28515625
aF-0.14064378004807693
aF-0.23893229166666666
aF-0.08158794202302631
aF-0.20540364583333334
aF-0.241455078125
aF-0.17838541666666666
aF-0.19691685267857142
aF-0.103143310546875
aF-0.17933872767857142
aF-0.2965576171875
aF-0.115478515625
aF-0.21416766826923078
aF-0.31591796875
aF-0.37254638671875
aF-0.19660295758928573
aF-0.27982177734375
aF-0.1323864459991455
aF-0.10888671875
aF-0.2225341796875
aF-0.14501953125
aF-0.18701171875
aF-0.205517578125
aF-0.16922433035714285
aF-0.13950456891741073
aF-0.1865234375
aF-0.10395304361979167
aF-0.15939812911184212
aF-0.16634114583333334
aF-0.2078857421875
aF-0.090789794921875
aF-0.14322916666666666
aF-0.22344970703125
aF-0.07886505126953125
aF-0.4869791666666667
aF-0.18272569444444445
aF-0.17418416341145834
aF-0.07536764705882353
aF-0.2080078125
aF-0.1871619591346154
aF-0.17281565946691177
aF-0.2137451171875
aF-0.15179912860576922
aF-0.07655552455357142
aF-0.19580078125
aF-0.13448660714285715
aF-0.21864201472355768
aF-0.1185489230685764
aF-0.1888936311006546
aF-0.19287109375
aF-0.35107421875
aF-0.1262613981962204
aF-0.182861328125
aF-0.11942400251116071
aF-0.248046875
aF-0.08749898274739583
aF-0.2144368439912796
aF-0.04773308249080882
aF-0.08598497178819445
aF-0.1126568603515625
aF-0.3626302083333333
aF-0.26171875
aF-0.2734375
aF-0.09864390641450882
aF-0.17364501953125
aF-0.0993499755859375
aF-0.13479817708333333
aF-0.18094889322916666
aF-0.1908908420138889
aF-0.211962890625
aF-0.17184244791666667
aF-0.14216496394230768
aF-0.3125
aF-0.22981770833333334
aF-0.16666823167067307
aF-0.20475260416666666
aF-0.0860198363661766
aF-0.12996419270833334
aF-0.059453125
aF-0.154083251953125
aF-0.08708360460069445
aF-0.1127349853515625
aF-0.11636390686035156
aF-0.12239946637834821
aF-0.16748046875
aF-0.236328125
aF-0.14115397135416666
aF-0.23111979166666666
aF-0.2975260416666667
aF-0.1328125
aF-0.2470703125
aF-0.2042643278837204
aF-0.3111979166666667
aF-0.11140950520833333
aF-0.18668619791666666
aF-0.1002197265625
aF-0.08244578043619792
aF-0.21576866736778846
aF-0.135107421875
aF-0.1331505408653846
aF-0.349609375
aF-0.16595458984375
aF-0.14274088541666666
aF-0.08783764309353298
aF-0.13057454427083334
aF-0.319482421875
aF-0.155419921875
aF-0.07158602774143219
aF-0.20772879464285715
aF-0.30224609375
aF-0.21744791666666666
aF-0.144287109375
aF-0.19859095982142858
aF-0.062652587890625
aF-0.279296875
aF-0.1114501953125
aF-0.043538411458333336
aF-0.21375528971354166
aF-0.1710845947265625
aF-0.3095703125
aF-0.21612079326923078
aF-0.11802164713541667
aF-0.2805989583333333
aF-0.142724609375
aF-0.20711669921875
aF-0.07658555772569445
aF-0.1049945537860577
aF-0.1747233122587204
aF-0.16591796875
aF-0.12685648600260416
aF-0.0762786865234375
aF-0.14168054917279413
aF-0.123779296875
aF-0.10390472412109375
aF-0.27197265625
aF-0.16960797991071427
aF-0.16082763671875
aF-0.284149169921875
aF-0.17618815104166666
aF-0.19810267857142858
aF-0.141357421875
aF-0.0853271484375
aF0.0020506739752316587
aF0.0163215546443088
aF-0.011945106835009081
aF0.06000553557261387
aF-0.03936873493647378
aF-0.0028173257053025693
aF-0.019092303767683273
aF-0.018860723259444035
aF0.054983333726110147
aF0.020256420068521068
aF-0.015653118508480526
aF-0.03614034198046312
aF-0.017738954810319736
aF0.044879593253119895
aF-0.08261336286062736
aF0.03363890066436967
aF0.04289528321760226
aF0.04481587282347711
aF-0.007809063635948887
aF-0.06882283303843652
aF-0.000882066218261403
aF0.06681352476285125
aF0.05441942315324757
aF0.02110150821380062
aF-0.0272262050651697
aF-0.030095048613625885
aF-0.03848091415205851
aF0.09227564502897445
aF0.03843786248135614
aF-0.02928855852222924
aF-0.05359887626241037
aF-0.013725576618933548
aF-0.06235546184854798
aF-0.09273747467098192
aF-3.7351799689437454e-05
aF-0.040363813915173075
aF0.034263344208492814
aF0.017301564566639713
aF0.0022692032865778643
aF0.016142186871940065
aF0.016042347509734902
aF-0.028235668628056248
aF0.06976516702373961
aF0.01987896062894555
aF-0.02998775168589366
aF-0.05244591728358674
aF-0.04440843462277648
aF-0.020997135516466776
aF-0.022863585017922076
aF0.01759154310897934
aF-0.07307789364676605
aF0.04758818167688928
aF-0.011214270752968863
aF0.008708142234005423
aF0.020674829330682223
aF0.04588031688982117
aF-0.07200882145133718
aF-0.023460431625772108
aF-0.012947746143877045
aF-0.06256209307814695
aF-0.06307045730684777
aF0.020503521478733796
aF-0.0803639216150978
aF-0.005914621896806019
aF-0.03969457966533027
aF-0.06001279418846814
aF-0.053103896350083446
aF0.02248046882985182
aF0.026527702203979063
aF0.0305942894836888
aF0.029744011400247225
aF0.006367365711508066
aF0.03170333115843925
aF-0.039472054280939244
aF-0.07371419538808131
aF-0.0641835762212964
aF0.06836825234664107
aF0.0005235551190891904
aF0.050357150395831746
aF0.04759195000412912
aF-0.02758784617990706
aF-0.053577065624282
aF0.018437095237571786
aF-0.034563599783186634
aF0.035071704871200586
aF-0.010500116834063945
aF-0.027212447777257554
aF0.0916379776941261
aF0.012663228453812648
aF0.018332481848629102
aF-0.0248615053592901
aF-0.047396702595675334
aF-0.05689965361466733
aF-0.054262378526518905
aF0.009936217766981583
aF-0.039070040183054
aF0.05631400362816983
aF0.009199799215431693
aF0.0507122323295042
aF-0.017620819956836065
aF0.011599862999398618
aF-0.036781187620772655
aF0.005277434567978951
aF0.0019708632928853256
aF-0.002433228707068089
aF0.009623158202167043
aF-0.06098967365155692
aF0.005242433152145165
aF-0.00480220564467238
aF-0.025324595133912022
aF-0.0014745586689894963
aF-0.04753670043343204
aF-0.014983068312198318
aF-0.022751230375439725
aF0.049307011786003954
aF0.0011528407530421168
aF0.027581761077726624
aF-0.04908452904275383
aF0.08019121940613734
aF0.032274450052669976
aF-0.015576489850481828
aF-0.013596065449983366
aF-0.06088136712238214
aF0.01288720774089728
aF0.03186892972514666
aF-0.032722916671834655
aF-0.048268803236916
aF0.08507092600274063
aF-0.023549957064710286
aF0.005611308154866646
aF-0.0457859356214931
aF-0.05377339737317985
aF-0.04954519424514052
aF-0.009332788219230637
aF-0.019550304334280146
aF-0.021588183909060258
aF-0.010751636346819754
aF0.032355343988043725
aF0.021689954474865686
aF0.07741206461975048
aF0.04413162656784885
aF-0.056881479028629944
aF-0.016531863045943063
aF-0.02729673212673774
aF-0.011282060161329205
aF-0.022091987614135913
aF0.03750848920022838
aF0.018541679255988836
aF-0.02707548642122071
aF-0.09526550774423712
aF0.0662109687033623
aF-0.021184026129326308
aF-0.0060893813780146765
aF-0.012061195307058351
aF-0.00849472983678005
aF-0.027006383652907875
aF-0.041583871788377844
aF-0.030841565013935018
aF-0.06280494002021053
aF-0.0036901596966929474
aF-0.0595647249130808
aF0.04789503778343077
aF0.03299248826985936
aF-0.018609717471271655
aF-0.012744909821279887
aF-0.02824540232242203
aF0.032860757274445616
aF-0.04015630993243552
aF-0.03309006116790022
aF0.048047172440442154
aF-0.061963317726763424
aF-0.010998042308261936
aF-0.0015283068505507257
aF-0.04891911503757315
aF-0.044755994487293345
aF0.014733828571360803
aF0.05724030987470917
aF-0.04852016276740493
aF-0.012967215871492459
aF-0.04012102799341782
aF-0.044025732051485016
aF-0.027494425407447974
aF0.012127762339110419
aF-0.02184066448209185
aF0.039157687101741716
aF-0.0339535163417698
aF-0.02295772132729708
aF0.01708471483698673
aF0.04055261617042771
aF-0.003460042593744639
aF-0.04677441411324593
aF0.035222411734496986
aF-0.07914872257247359
aF-0.03116755246434507
aF-0.018026526128914953
aF0.05116341786965629
aF-0.015288442716214375
aF-0.04415431602557215
aF0.000748195945499605
aF-0.059424778812217714
aF-0.0008274594701736763
aF0.06672012288772312
aF0.005697514729127026
aF0.016025890254290732
aF0.017937959404649973
aF-0.0029580496860340546
aF-0.03372500624446127
aF-0.017913179386224394
aF-0.031439009165627585
aF0.012712990275096026
aF-0.0007109584792265335
aF0.02118860352539474
aF-0.039104112489367265
aF0.04434503194723788
aF-0.05735072565452831
aF0.052099825798367944
aF0.043059412207159795
aF0.033342814806936245
aF-0.07441457760351655
aF-0.04207605763263927
aF-0.06389117525242696
aF0.054732543557730225
aF-0.0072263805589633445
aF0.03644839786772569
aF0.009058386693326351
aF-0.022317821981512595
aF0.005258298039883256
aF0.027927406276793708
aF-0.017322986000150715
aF-0.017249985924006332
aF-0.023205202594568538
aF0.0020520147416029366
aF-0.015625871292201166
aF-0.01958067145356204
aF0.03876058026805878
aF0.019409116167633814
aF0.054356573135657234
aF-0.024371451046376596
aF0.044199085464382816
aF0.019126280593144192
aF0.07634285351225185
aF0.0035684063655306137
aF-0.022168214339078996
aF-0.0742178757437349
aF-0.005842000673622197
aF-0.008296941932589848
aF0.008970958727327474
aF0.10724449183560343
aF-0.0034874375469744665
aF-0.05267926333127923
aF-0.0524553390185125
aF0.06871908747625444
aF-0.010829548368805043
aF0.02119892169452104
aF0.06251880546448778
aF-0.022113946934008203
aF0.013574675693665151
aF0.02674778000349644
aF-0.046554507186982404
aF-0.06438663694842438
aF0.03856016731186434
aF0.00020351091289532125
aF0.02029270551921162
aF-0.024115871501816395
aF0.017769738452796908
aF0.07698572842682434
aF-0.05690846429992585
aF-0.03292950666915907
aF-0.05425621741163895
aF-0.01748855480302582
aF-0.005863736968765421
aF0.11201014706311738
aF0.03143188939979317
aF0.015620606476829783
aF0.051605596981310786
aF-0.03956762284710423
aF-0.030556737179904436
aF-0.06768513148983724
aF-0.016313749913034255
aF0.021805788597965454
aF-0.07710756417441876
aF0.011624552261292961
aF-0.022859220144880735
aF0.04308010875902481
aF0.03602477143050414
aF-0.021960008674156588
aF-0.02647022062050179
aF0.01193551601054131
aF0.04953610093287012
aF0.024922431600011192
aF0.029584841108425065
aF0.007891739379773464
aF-0.07336290610096133
aF0.010200123001797401
aF0.016191235629457065
aF-0.07588541975230056
aF-0.002774930360843988
aF-0.05293197860724969
aF-0.011709327420374342
aF0.03298662156178068
aa.